; ModuleID = 'source-C-CXX/41/1018.cpp'
source_filename = "source-C-CXX/41/1018.cpp"
target datalayout = "e-m:e-p270:32:32-p271:32:32-p272:64:64-i64:64-f80:128-n8:16:32:64-S128"
target triple = "x86_64-pc-linux-gnu"

%"class.std::ios_base::Init" = type { i8 }
%"class.std::basic_istream" = type { i32 (...)**, i64, %"class.std::basic_ios" }
%"class.std::basic_ios" = type { %"class.std::ios_base", %"class.std::basic_ostream"*, i8, i8, %"class.std::basic_streambuf"*, %"class.std::ctype"*, %"class.std::num_put"*, %"class.std::num_get"* }
%"class.std::ios_base" = type { i32 (...)**, i64, i64, i32, i32, i32, %"struct.std::ios_base::_Callback_list"*, %"struct.std::ios_base::_Words", [8 x %"struct.std::ios_base::_Words"], i32, %"struct.std::ios_base::_Words"*, %"class.std::locale" }
%"struct.std::ios_base::_Callback_list" = type { %"struct.std::ios_base::_Callback_list"*, void (i32, %"class.std::ios_base"*, i32)*, i32, i32 }
%"struct.std::ios_base::_Words" = type { i8*, i64 }
%"class.std::locale" = type { %"class.std::locale::_Impl"* }
%"class.std::locale::_Impl" = type { i32, %"class.std::locale::facet"**, i64, %"class.std::locale::facet"**, i8** }
%"class.std::locale::facet" = type <{ i32 (...)**, i32, [4 x i8] }>
%"class.std::basic_ostream" = type { i32 (...)**, %"class.std::basic_ios" }
%"class.std::basic_streambuf" = type { i32 (...)**, i8*, i8*, i8*, i8*, i8*, i8*, %"class.std::locale" }
%"class.std::ctype" = type <{ %"class.std::locale::facet.base", [4 x i8], %struct.__locale_struct*, i8, [7 x i8], i32*, i32*, i16*, i8, [256 x i8], [256 x i8], i8, [6 x i8] }>
%"class.std::locale::facet.base" = type <{ i32 (...)**, i32 }>
%struct.__locale_struct = type { [13 x %struct.__locale_data*], i16*, i32*, i32*, [13 x i8*] }
%struct.__locale_data = type opaque
%"class.std::num_put" = type { %"class.std::locale::facet.base", [4 x i8] }
%"class.std::num_get" = type { %"class.std::locale::facet.base", [4 x i8] }

@_ZStL8__ioinit = internal global %"class.std::ios_base::Init" zeroinitializer, align 1
@__dso_handle = external hidden global i8
@_ZSt3cin = external global %"class.std::basic_istream", align 8
@_ZSt4cout = external global %"class.std::basic_ostream", align 8
@llvm.global_ctors = appending global [1 x { i32, void ()*, i8* }] [{ i32, void ()*, i8* } { i32 65535, void ()* @_GLOBAL__sub_I_1018.cpp, i8* null }]

declare void @_ZNSt8ios_base4InitC1Ev(%"class.std::ios_base::Init"* nonnull align 1 dereferenceable(1)) unnamed_addr #0

; Function Attrs: nounwind
declare void @_ZNSt8ios_base4InitD1Ev(%"class.std::ios_base::Init"* nonnull align 1 dereferenceable(1)) unnamed_addr #1

; Function Attrs: nofree nounwind
declare i32 @__cxa_atexit(void (i8*)*, i8*, i8*) local_unnamed_addr #2

; Function Attrs: mustprogress norecurse sspstrong uwtable
define dso_local i32 @main() local_unnamed_addr #3 {
  %1 = alloca i8, align 1
  %2 = alloca i32, align 4
  %3 = alloca i32, align 4
  %4 = bitcast i32* %2 to i8*
  call void @llvm.lifetime.start.p0i8(i64 4, i8* nonnull %4) #8
  %5 = bitcast i32* %3 to i8*
  call void @llvm.lifetime.start.p0i8(i64 4, i8* nonnull %5) #8
  %6 = call nonnull align 8 dereferenceable(16) %"class.std::basic_istream"* @_ZNSirsERi(%"class.std::basic_istream"* nonnull align 8 dereferenceable(16) @_ZSt3cin, i32* nonnull align 4 dereferenceable(4) %2)
  %7 = load i32, i32* %2, align 4, !tbaa !5
  %8 = zext i32 %7 to i64
  %9 = call i8* @llvm.stacksave()
  %10 = alloca i64, i64 %8, align 16
  %11 = load i32, i32* %2, align 4, !tbaa !5
  %12 = icmp sgt i32 %11, 0
  br i1 %12, label %13, label %21

13:                                               ; preds = %0, %13
  %14 = phi i64 [ %17, %13 ], [ 0, %0 ]
  %15 = getelementptr inbounds i64, i64* %10, i64 %14
  %16 = call nonnull align 8 dereferenceable(16) %"class.std::basic_istream"* @_ZNSi10_M_extractIlEERSiRT_(%"class.std::basic_istream"* nonnull align 8 dereferenceable(16) @_ZSt3cin, i64* nonnull align 8 dereferenceable(8) %15)
  %17 = add nuw nsw i64 %14, 1
  %18 = load i32, i32* %2, align 4, !tbaa !5
  %19 = sext i32 %18 to i64
  %20 = icmp slt i64 %17, %19
  br i1 %20, label %13, label %21, !llvm.loop !9

21:                                               ; preds = %13, %0
  %22 = call nonnull align 8 dereferenceable(16) %"class.std::basic_istream"* @_ZNSirsERi(%"class.std::basic_istream"* nonnull align 8 dereferenceable(16) @_ZSt3cin, i32* nonnull align 4 dereferenceable(4) %3)
  %23 = load i32, i32* %2, align 4, !tbaa !5
  %24 = load i32, i32* %3, align 4
  %25 = sext i32 %24 to i64
  %26 = icmp sgt i32 %23, 0
  br i1 %26, label %27, label %127

27:                                               ; preds = %21
  %28 = zext i32 %23 to i64
  br label %29

29:                                               ; preds = %27, %122
  %30 = phi i32 [ %123, %122 ], [ %23, %27 ]
  %31 = phi i32 [ %124, %122 ], [ 0, %27 ]
  %32 = add i32 %30, -1
  %33 = zext i32 %32 to i64
  %34 = getelementptr inbounds i64, i64* %10, i64 %33
  %35 = load i64, i64* %34, align 8, !tbaa !11
  %36 = icmp eq i64 %35, %25
  br i1 %36, label %37, label %122

37:                                               ; preds = %29
  %38 = icmp sgt i32 %30, %23
  br i1 %38, label %116, label %39

39:                                               ; preds = %37
  %40 = sext i32 %32 to i64
  %41 = add nsw i64 %40, 1
  %42 = call i64 @llvm.smax.i64(i64 %41, i64 %28)
  %43 = sub i64 %42, %40
  %44 = icmp ult i64 %43, 4
  br i1 %44, label %104, label %45

45:                                               ; preds = %39
  %46 = and i64 %43, -4
  %47 = add i64 %46, %40
  %48 = add i64 %46, -4
  %49 = lshr exact i64 %48, 2
  %50 = add nuw nsw i64 %49, 1
  %51 = and i64 %50, 1
  %52 = icmp eq i64 %48, 0
  br i1 %52, label %86, label %53

53:                                               ; preds = %45
  %54 = and i64 %50, 9223372036854775806
  br label %55

55:                                               ; preds = %55, %53
  %56 = phi i64 [ 0, %53 ], [ %83, %55 ]
  %57 = phi i64 [ %54, %53 ], [ %84, %55 ]
  %58 = add i64 %56, %40
  %59 = add nsw i64 %58, 1
  %60 = getelementptr inbounds i64, i64* %10, i64 %59
  %61 = bitcast i64* %60 to <2 x i64>*
  %62 = load <2 x i64>, <2 x i64>* %61, align 8, !tbaa !11
  %63 = getelementptr inbounds i64, i64* %60, i64 2
  %64 = bitcast i64* %63 to <2 x i64>*
  %65 = load <2 x i64>, <2 x i64>* %64, align 8, !tbaa !11
  %66 = getelementptr inbounds i64, i64* %10, i64 %58
  %67 = bitcast i64* %66 to <2 x i64>*
  store <2 x i64> %62, <2 x i64>* %67, align 8, !tbaa !11
  %68 = getelementptr inbounds i64, i64* %66, i64 2
  %69 = bitcast i64* %68 to <2 x i64>*
  store <2 x i64> %65, <2 x i64>* %69, align 8, !tbaa !11
  %70 = or i64 %56, 4
  %71 = add i64 %70, %40
  %72 = add nsw i64 %71, 1
  %73 = getelementptr inbounds i64, i64* %10, i64 %72
  %74 = bitcast i64* %73 to <2 x i64>*
  %75 = load <2 x i64>, <2 x i64>* %74, align 8, !tbaa !11
  %76 = getelementptr inbounds i64, i64* %73, i64 2
  %77 = bitcast i64* %76 to <2 x i64>*
  %78 = load <2 x i64>, <2 x i64>* %77, align 8, !tbaa !11
  %79 = getelementptr inbounds i64, i64* %10, i64 %71
  %80 = bitcast i64* %79 to <2 x i64>*
  store <2 x i64> %75, <2 x i64>* %80, align 8, !tbaa !11
  %81 = getelementptr inbounds i64, i64* %79, i64 2
  %82 = bitcast i64* %81 to <2 x i64>*
  store <2 x i64> %78, <2 x i64>* %82, align 8, !tbaa !11
  %83 = add nuw i64 %56, 8
  %84 = add i64 %57, -2
  %85 = icmp eq i64 %84, 0
  br i1 %85, label %86, label %55, !llvm.loop !13

86:                                               ; preds = %55, %45
  %87 = phi i64 [ 0, %45 ], [ %83, %55 ]
  %88 = icmp eq i64 %51, 0
  br i1 %88, label %102, label %89

89:                                               ; preds = %86
  %90 = add i64 %87, %40
  %91 = add nsw i64 %90, 1
  %92 = getelementptr inbounds i64, i64* %10, i64 %91
  %93 = bitcast i64* %92 to <2 x i64>*
  %94 = load <2 x i64>, <2 x i64>* %93, align 8, !tbaa !11
  %95 = getelementptr inbounds i64, i64* %92, i64 2
  %96 = bitcast i64* %95 to <2 x i64>*
  %97 = load <2 x i64>, <2 x i64>* %96, align 8, !tbaa !11
  %98 = getelementptr inbounds i64, i64* %10, i64 %90
  %99 = bitcast i64* %98 to <2 x i64>*
  store <2 x i64> %94, <2 x i64>* %99, align 8, !tbaa !11
  %100 = getelementptr inbounds i64, i64* %98, i64 2
  %101 = bitcast i64* %100 to <2 x i64>*
  store <2 x i64> %97, <2 x i64>* %101, align 8, !tbaa !11
  br label %102

102:                                              ; preds = %86, %89
  %103 = icmp eq i64 %43, %46
  br i1 %103, label %113, label %104

104:                                              ; preds = %39, %102
  %105 = phi i64 [ %40, %39 ], [ %47, %102 ]
  br label %106

106:                                              ; preds = %104, %106
  %107 = phi i64 [ %108, %106 ], [ %105, %104 ]
  %108 = add nsw i64 %107, 1
  %109 = getelementptr inbounds i64, i64* %10, i64 %108
  %110 = load i64, i64* %109, align 8, !tbaa !11
  %111 = getelementptr inbounds i64, i64* %10, i64 %107
  store i64 %110, i64* %111, align 8, !tbaa !11
  %112 = icmp slt i64 %108, %28
  br i1 %112, label %106, label %113, !llvm.loop !15

113:                                              ; preds = %106, %102
  %114 = phi i64 [ %47, %102 ], [ %108, %106 ]
  %115 = trunc i64 %114 to i32
  br label %116

116:                                              ; preds = %113, %37
  %117 = phi i32 [ %32, %37 ], [ %115, %113 ]
  %118 = sext i32 %117 to i64
  %119 = getelementptr inbounds i64, i64* %10, i64 %118
  store i64 0, i64* %119, align 8, !tbaa !11
  %120 = add nsw i32 %31, 1
  %121 = add nsw i32 %117, -1
  br label %122

122:                                              ; preds = %29, %116
  %123 = phi i32 [ %32, %29 ], [ %121, %116 ]
  %124 = phi i32 [ %31, %29 ], [ %120, %116 ]
  %125 = phi i32 [ %30, %29 ], [ %117, %116 ]
  %126 = icmp sgt i32 %125, 1
  br i1 %126, label %29, label %127, !llvm.loop !17

127:                                              ; preds = %122, %21
  %128 = phi i32 [ 0, %21 ], [ %124, %122 ]
  %129 = sub nsw i32 %23, %128
  store i32 %129, i32* %2, align 4, !tbaa !5
  %130 = icmp sgt i32 %129, 1
  br i1 %130, label %131, label %144

131:                                              ; preds = %127, %131
  %132 = phi i64 [ %137, %131 ], [ 0, %127 ]
  %133 = getelementptr inbounds i64, i64* %10, i64 %132
  %134 = load i64, i64* %133, align 8, !tbaa !11
  %135 = call nonnull align 8 dereferenceable(8) %"class.std::basic_ostream"* @_ZNSo9_M_insertIlEERSoT_(%"class.std::basic_ostream"* nonnull align 8 dereferenceable(8) @_ZSt4cout, i64 %134)
  call void @llvm.lifetime.start.p0i8(i64 1, i8* nonnull %1)
  store i8 32, i8* %1, align 1, !tbaa !18
  %136 = call nonnull align 8 dereferenceable(8) %"class.std::basic_ostream"* @_ZSt16__ostream_insertIcSt11char_traitsIcEERSt13basic_ostreamIT_T0_ES6_PKS3_l(%"class.std::basic_ostream"* nonnull align 8 dereferenceable(8) %135, i8* nonnull %1, i64 1)
  call void @llvm.lifetime.end.p0i8(i64 1, i8* nonnull %1)
  %137 = add nuw nsw i64 %132, 1
  %138 = load i32, i32* %2, align 4, !tbaa !5
  %139 = add nsw i32 %138, -1
  %140 = sext i32 %139 to i64
  %141 = icmp slt i64 %137, %140
  br i1 %141, label %131, label %142, !llvm.loop !19

142:                                              ; preds = %131
  %143 = and i64 %137, 4294967295
  br label %144

144:                                              ; preds = %142, %127
  %145 = phi i64 [ 0, %127 ], [ %143, %142 ]
  %146 = getelementptr inbounds i64, i64* %10, i64 %145
  %147 = load i64, i64* %146, align 8, !tbaa !11
  %148 = call nonnull align 8 dereferenceable(8) %"class.std::basic_ostream"* @_ZNSo9_M_insertIlEERSoT_(%"class.std::basic_ostream"* nonnull align 8 dereferenceable(8) @_ZSt4cout, i64 %147)
  call void @llvm.stackrestore(i8* %9)
  call void @llvm.lifetime.end.p0i8(i64 4, i8* nonnull %5) #8
  call void @llvm.lifetime.end.p0i8(i64 4, i8* nonnull %4) #8
  ret i32 0
}

; Function Attrs: argmemonly mustprogress nofree nosync nounwind willreturn
declare void @llvm.lifetime.start.p0i8(i64 immarg, i8* nocapture) #4

declare nonnull align 8 dereferenceable(16) %"class.std::basic_istream"* @_ZNSirsERi(%"class.std::basic_istream"* nonnull align 8 dereferenceable(16), i32* nonnull align 4 dereferenceable(4)) local_unnamed_addr #0

; Function Attrs: mustprogress nofree nosync nounwind willreturn
declare i8* @llvm.stacksave() #5

; Function Attrs: mustprogress nofree nosync nounwind willreturn
declare void @llvm.stackrestore(i8*) #5

; Function Attrs: argmemonly mustprogress nofree nosync nounwind willreturn
declare void @llvm.lifetime.end.p0i8(i64 immarg, i8* nocapture) #4

declare nonnull align 8 dereferenceable(16) %"class.std::basic_istream"* @_ZNSi10_M_extractIlEERSiRT_(%"class.std::basic_istream"* nonnull align 8 dereferenceable(16), i64* nonnull align 8 dereferenceable(8)) local_unnamed_addr #0

declare nonnull align 8 dereferenceable(8) %"class.std::basic_ostream"* @_ZNSo9_M_insertIlEERSoT_(%"class.std::basic_ostream"* nonnull align 8 dereferenceable(8), i64) local_unnamed_addr #0

declare nonnull align 8 dereferenceable(8) %"class.std::basic_ostream"* @_ZSt16__ostream_insertIcSt11char_traitsIcEERSt13basic_ostreamIT_T0_ES6_PKS3_l(%"class.std::basic_ostream"* nonnull align 8 dereferenceable(8), i8*, i64) local_unnamed_addr #0

; Function Attrs: sspstrong uwtable
define internal void @_GLOBAL__sub_I_1018.cpp() #6 section ".text.startup" {
  tail call void @_ZNSt8ios_base4InitC1Ev(%"class.std::ios_base::Init"* nonnull align 1 dereferenceable(1) @_ZStL8__ioinit)
  %1 = tail call i32 @__cxa_atexit(void (i8*)* bitcast (void (%"class.std::ios_base::Init"*)* @_ZNSt8ios_base4InitD1Ev to void (i8*)*), i8* getelementptr inbounds (%"class.std::ios_base::Init", %"class.std::ios_base::Init"* @_ZStL8__ioinit, i64 0, i32 0), i8* nonnull @__dso_handle) #8
  ret void
}

; Function Attrs: nofree nosync nounwind readnone speculatable willreturn
declare i64 @llvm.smax.i64(i64, i64) #7


!llvm.module.flags = !{!0, !1, !2, !3}
!llvm.ident = !{!4}

!0 = !{i32 1, !"wchar_size", i32 4}
!1 = !{i32 7, !"PIC Level", i32 2}
!2 = !{i32 7, !"PIE Level", i32 2}
!3 = !{i32 7, !"uwtable", i32 1}
!4 = !{!"clang version 13.0.0"}
!5 = !{!6, !6, i64 0}
!6 = !{!"int", !7, i64 0}
!7 = !{!"omnipotent char", !8, i64 0}
!8 = !{!"Simple C++ TBAA"}
!9 = distinct !{!9, !10}
!10 = !{!"llvm.loop.mustprogress"}
!11 = !{!12, !12, i64 0}
!12 = !{!"long", !7, i64 0}
!13 = distinct !{!13, !10, !14}
!14 = !{!"llvm.loop.isvectorized", i32 1}
!15 = distinct !{!15, !10, !16, !14}
!16 = !{!"llvm.loop.unroll.runtime.disable"}
!17 = distinct !{!17, !10}
!18 = !{!7, !7, i64 0}
!19 = distinct !{!19, !10}
